target datalayout = "e-m:e-p270:32:32-p271:32:32-p272:64:64-i64:64-i128:128-f80:128-n8:16:32:64-S128"
target triple = "x86_64-pc-linux-gnu"

%struct.ossl_crmf_attributetypeandvalue_st = type { ptr, %union.anon.0 }
%union.anon.0 = type { ptr }

; Function Attrs: nounwind uwtable
define i32 @OSSL_CMP_ATAV_get_rsaKeyLen(ptr noundef %0) #0 {
  %2 = alloca i32, align 4
  %3 = alloca ptr, align 8
  %4 = alloca i64, align 8
  %5 = alloca i32, align 4
  store ptr %0, ptr %3, align 8, !tbaa !87
  call void @llvm.lifetime.start.p0(i64 8, ptr %4) #4
  %6 = load ptr, ptr %3, align 8, !tbaa !87
  %7 = icmp eq ptr %6, null
  br i1 %7, label %20, label %8

8:                                                ; preds = %1
  %9 = load ptr, ptr %3, align 8, !tbaa !87
  %10 = getelementptr inbounds nuw %struct.ossl_crmf_attributetypeandvalue_st, ptr %9, i32 0, i32 0
  %11 = load ptr, ptr %10, align 8, !tbaa !93
  %12 = call i32 @OBJ_obj2nid(ptr noundef %11)
  %13 = icmp ne i32 %12, 1260
  br i1 %13, label %20, label %14

14:                                               ; preds = %8
  %15 = load ptr, ptr %3, align 8, !tbaa !87
  %16 = getelementptr inbounds nuw %struct.ossl_crmf_attributetypeandvalue_st, ptr %15, i32 0, i32 1
  %17 = load ptr, ptr %16, align 8, !tbaa !56
  %18 = call i32 @ASN1_INTEGER_get_int64(ptr noundef %4, ptr noundef %17)
  %19 = icmp ne i32 %18, 0
  br i1 %19, label %21, label %20

20:                                               ; preds = %14, %8, %1
  store i32 -1, ptr %2, align 4
  store i32 1, ptr %5, align 4
  br label %31

21:                                               ; preds = %14
  %22 = load i64, ptr %4, align 8, !tbaa !10
  %23 = icmp sle i64 %22, 0
  br i1 %23, label %27, label %24

24:                                               ; preds = %21
  %25 = load i64, ptr %4, align 8, !tbaa !10
  %26 = icmp sgt i64 %25, 2147483647
  br i1 %26, label %27, label %28

27:                                               ; preds = %24, %21
  store i32 -2, ptr %2, align 4
  store i32 1, ptr %5, align 4
  br label %31

28:                                               ; preds = %24
  %29 = load i64, ptr %4, align 8, !tbaa !10
  %30 = trunc i64 %29 to i32
  store i32 %30, ptr %2, align 4
  store i32 1, ptr %5, align 4
  br label %31

31:                                               ; preds = %28, %27, %20
  call void @llvm.lifetime.end.p0(i64 8, ptr %4) #4
  %32 = load i32, ptr %2, align 4
  ret i32 %32
}