; Function Attrs: nounwind uwtable
define range(i32 -2, -2147483648) i32 @OSSL_CMP_ATAV_get_rsaKeyLen(ptr noundef readonly captures(address_is_null) %0) local_unnamed_addr #1 {
  %2 = alloca i64, align 8
  call void @llvm.lifetime.start.p0(i64 8, ptr nonnull %2) #6
  %3 = icmp eq ptr %0, null
  br i1 %3, label %15, label %4

4:                                                ; preds = %1
  %5 = load ptr, ptr %0, align 8, !tbaa !29
  %6 = tail call i32 @OBJ_obj2nid(ptr noundef %5) #6
  %.not = icmp eq i32 %6, 1260
  br i1 %.not, label %7, label %15

7:                                                ; preds = %4
  %8 = getelementptr inbounds nuw i8, ptr %0, i64 8
  %9 = load ptr, ptr %8, align 8, !tbaa !9
  %10 = call i32 @ASN1_INTEGER_get_int64(ptr noundef nonnull %2, ptr noundef %9) #6
  %.not6 = icmp eq i32 %10, 0
  br i1 %.not6, label %15, label %11

11:                                               ; preds = %7
  %12 = load i64, ptr %2, align 8, !tbaa !33
  %13 = add i64 %12, -2147483648
  %or.cond = icmp ult i64 %13, -2147483647
  %14 = trunc nuw nsw i64 %12 to i32
  %spec.select = select i1 %or.cond, i32 -2, i32 %14
  br label %15

15:                                               ; preds = %11, %1, %4, %7
  %.0 = phi i32 [ -1, %7 ], [ -1, %4 ], [ -1, %1 ], [ %spec.select, %11 ]
  call void @llvm.lifetime.end.p0(i64 8, ptr nonnull %2) #6
  ret i32 %.0
}